	.file	"2.c"
	.section .rdata,"dr"
LC0:
	.ascii "%d\12\0"
	.text
	.globl	_FactRev
	.def	_FactRev;	.scl	2;	.type	32;	.endef
_FactRev:
LFB10:
	.cfi_startproc
	pushl	%ebp
	.cfi_def_cfa_offset 8
	.cfi_offset 5, -8
	movl	%esp, %ebp
	.cfi_def_cfa_register 5
	subl	$40, %esp
	movl	$0, -12(%ebp)
	movl	8(%ebp), %eax
	movl	%eax, %edx
	shrl	$31, %edx
	addl	%edx, %eax
	sarl	%eax
	movl	%eax, -12(%ebp)
	jmp	L2
L4:
	movl	8(%ebp), %eax
	cltd
	idivl	-12(%ebp)
	movl	%edx, %eax
	testl	%eax, %eax
	jne	L3
	movl	-12(%ebp), %eax
	movl	%eax, 4(%esp)
	movl	$LC0, (%esp)
	call	_printf
L3:
	subl	$1, -12(%ebp)
L2:
	cmpl	$0, -12(%ebp)
	jg	L4
	nop
	leave
	.cfi_restore 5
	.cfi_def_cfa 4, 4
	ret
	.cfi_endproc
LFE10:
	.def	___main;	.scl	2;	.type	32;	.endef
	.section .rdata,"dr"
LC1:
	.ascii "Enter thr Number\0"
LC2:
	.ascii "%d\0"
	.text
	.globl	_main
	.def	_main;	.scl	2;	.type	32;	.endef
_main:
LFB11:
	.cfi_startproc
	pushl	%ebp
	.cfi_def_cfa_offset 8
	.cfi_offset 5, -8
	movl	%esp, %ebp
	.cfi_def_cfa_register 5
	andl	$-16, %esp
	subl	$32, %esp
	call	___main
	movl	$0, 28(%esp)
	movl	$LC1, (%esp)
	call	_puts
	leal	28(%esp), %eax
	movl	%eax, 4(%esp)
	movl	$LC2, (%esp)
	call	_scanf
	movl	28(%esp), %eax
	movl	%eax, (%esp)
	call	_FactRev
	movl	$0, %eax
	leave
	.cfi_restore 5
	.cfi_def_cfa 4, 4
	ret
	.cfi_endproc
LFE11:
	.ident	"GCC: (MinGW.org GCC-6.3.0-1) 6.3.0"
	.def	_printf;	.scl	2;	.type	32;	.endef
	.def	_puts;	.scl	2;	.type	32;	.endef
	.def	_scanf;	.scl	2;	.type	32;	.endef
